target datalayout = "e-m:e-p270:32:32-p271:32:32-p272:64:64-i64:64-i128:128-f80:128-n8:16:32:64-S128"
target triple = "x86_64-pc-linux-gnu"

; Function Attrs: mustprogress uwtable
define void @_ZN13duckdb_brotli25DestroyPreparedDictionaryEPNS_13MemoryManagerEPNS_18PreparedDictionaryE(ptr noundef %0, ptr noundef %1) #0 {
  %3 = alloca ptr, align 8
  %4 = alloca ptr, align 8
  store ptr %0, ptr %3, align 8, !tbaa !3
  store ptr %1, ptr %4, align 8, !tbaa !18
  %5 = load ptr, ptr %4, align 8, !tbaa !18
  %6 = icmp ne ptr %5, null
  br i1 %6, label %8, label %7

7:                                                ; preds = %2
  br label %11

8:                                                ; preds = %2
  %9 = load ptr, ptr %3, align 8, !tbaa !3
  %10 = load ptr, ptr %4, align 8, !tbaa !18
  call void @_ZN13duckdb_brotli10BrotliFreeEPNS_13MemoryManagerEPv(ptr noundef %9, ptr noundef %10)
  store ptr null, ptr %4, align 8, !tbaa !18
  br label %11

11:                                               ; preds = %8, %7
  ret void
}