; Function Attrs: mustprogress uwtable
define void @_ZN13duckdb_brotli25DestroyPreparedDictionaryEPNS_13MemoryManagerEPNS_18PreparedDictionaryE(ptr noundef %0, ptr noundef %1) local_unnamed_addr #0 {
  %.not = icmp eq ptr %1, null
  br i1 %.not, label %4, label %3

3:                                                ; preds = %2
  tail call void @_ZN13duckdb_brotli10BrotliFreeEPNS_13MemoryManagerEPv(ptr noundef %0, ptr noundef nonnull %1)
  br label %4

4:                                                ; preds = %2, %3
  ret void
}